target datalayout = "e-m:e-p270:32:32-p271:32:32-p272:64:64-i64:64-i128:128-f80:128-n8:16:32:64-S128"
target triple = "x86_64-pc-linux-gnu"

%struct.anon = type { [32 x ptr], i32 }

@zend_optimizer_registered_passes = hidden global { [32 x ptr], i32, [4 x i8] } zeroinitializer, align 8

; Function Attrs: nounwind uwtable
define dso_local i32 @zend_optimizer_register_pass(ptr noundef %0) #0 {
  %2 = alloca i32, align 4
  %3 = alloca ptr, align 8
  store ptr %0, ptr %3, align 8, !tbaa !28
  %4 = load ptr, ptr %3, align 8, !tbaa !28
  %5 = icmp ne ptr %4, null
  br i1 %5, label %7, label %6

6:                                                ; preds = %1
  store i32 -1, ptr %2, align 4
  br label %18

7:                                                ; preds = %1
  %8 = load i32, ptr getelementptr inbounds nuw (%struct.anon, ptr @zend_optimizer_registered_passes, i32 0, i32 1), align 8, !tbaa !239
  %9 = icmp eq i32 %8, 32
  br i1 %9, label %10, label %11

10:                                               ; preds = %7
  store i32 -1, ptr %2, align 4
  br label %18

11:                                               ; preds = %7
  %12 = load ptr, ptr %3, align 8, !tbaa !28
  %13 = load i32, ptr getelementptr inbounds nuw (%struct.anon, ptr @zend_optimizer_registered_passes, i32 0, i32 1), align 8, !tbaa !239
  %14 = add nsw i32 %13, 1
  store i32 %14, ptr getelementptr inbounds nuw (%struct.anon, ptr @zend_optimizer_registered_passes, i32 0, i32 1), align 8, !tbaa !239
  %15 = sext i32 %13 to i64
  %16 = getelementptr inbounds [32 x ptr], ptr @zend_optimizer_registered_passes, i64 0, i64 %15
  store ptr %12, ptr %16, align 8, !tbaa !28
  %17 = load i32, ptr getelementptr inbounds nuw (%struct.anon, ptr @zend_optimizer_registered_passes, i32 0, i32 1), align 8, !tbaa !239
  store i32 %17, ptr %2, align 4
  br label %18

18:                                               ; preds = %11, %10, %6
  %19 = load i32, ptr %2, align 4
  ret i32 %19
}