; Function Attrs: mustprogress nofree norecurse nosync nounwind willreturn memory(readwrite, argmem: none, inaccessiblemem: none) uwtable
define dso_local range(i32 -2147483647, -2147483648) i32 @zend_optimizer_register_pass(ptr noundef %0) local_unnamed_addr #13 {
  %.not = icmp eq ptr %0, null
  br i1 %.not, label %9, label %2

2:                                                ; preds = %1
  %3 = load i32, ptr getelementptr inbounds nuw (i8, ptr @zend_optimizer_registered_passes, i64 256), align 8, !tbaa !208
  %4 = icmp eq i32 %3, 32
  br i1 %4, label %9, label %5

5:                                                ; preds = %2
  %6 = add nsw i32 %3, 1
  store i32 %6, ptr getelementptr inbounds nuw (i8, ptr @zend_optimizer_registered_passes, i64 256), align 8, !tbaa !208
  %7 = sext i32 %3 to i64
  %8 = getelementptr inbounds [32 x ptr], ptr @zend_optimizer_registered_passes, i64 0, i64 %7
  store ptr %0, ptr %8, align 8, !tbaa !160
  br label %9

9:                                                ; preds = %2, %1, %5
  %.0 = phi i32 [ %6, %5 ], [ -1, %1 ], [ -1, %2 ]
  ret i32 %.0
}